; Function Attrs: nofree norecurse nosync nounwind memory(readwrite, inaccessiblemem: none) uwtable
define internal noundef i32 @filter_slice_alpha16(ptr noundef readonly captures(none) %0, ptr noundef readonly captures(none) %1, i32 noundef %2, i32 noundef %3) #6 {
  %5 = getelementptr inbounds nuw i8, ptr %1, i64 108
  %6 = load i32, ptr %5, align 4, !tbaa !53
  %7 = mul nsw i32 %6, %2
  %8 = sdiv i32 %7, %3
  %9 = add nsw i32 %2, 1
  %10 = mul nsw i32 %6, %9
  %11 = sdiv i32 %10, %3
  %12 = icmp slt i32 %8, %11
  br i1 %12, label %.lr.ph37, label %._crit_edge38

.lr.ph37:                                         ; preds = %4
  %13 = getelementptr inbounds nuw i8, ptr %0, i64 72
  %14 = load ptr, ptr %13, align 8, !tbaa !4
  %15 = getelementptr inbounds nuw i8, ptr %14, i64 53
  %16 = load i8, ptr %15, align 1, !tbaa !71
  %.not = icmp eq i8 %16, 0
  %17 = select i1 %.not, i64 3, i64 0
  %18 = getelementptr inbounds nuw [8 x ptr], ptr %1, i64 0, i64 %17
  %19 = load ptr, ptr %18, align 8, !tbaa !54
  %20 = zext i8 %16 to i64
  %21 = getelementptr inbounds nuw i8, ptr %14, i64 57
  %22 = getelementptr inbounds nuw i8, ptr %1, i64 104
  %23 = load i32, ptr %22, align 8, !tbaa !74
  %24 = icmp sgt i32 %23, 0
  %25 = select i1 %.not, i64 1, i64 4
  br i1 %24, label %.lr.ph37.split.us, label %._crit_edge38

.lr.ph37.split.us:                                ; preds = %.lr.ph37
  %26 = getelementptr inbounds nuw i8, ptr %1, i64 64
  %27 = getelementptr inbounds nuw [8 x i32], ptr %26, i64 0, i64 %17
  %28 = load i32, ptr %27, align 4, !tbaa !75
  %29 = getelementptr inbounds nuw i8, ptr %14, i64 48
  %30 = getelementptr inbounds nuw i8, ptr %14, i64 12
  %31 = getelementptr inbounds nuw i8, ptr %14, i64 44
  %32 = load i32, ptr %31, align 4, !tbaa !72
  %33 = load i32, ptr %30, align 4, !tbaa !40
  %34 = load i32, ptr %29, align 8, !tbaa !73
  %35 = sext i32 %8 to i64
  %36 = sext i32 %28 to i64
  %wide.trip.count = sext i32 %11 to i64
  br label %.lr.ph.us

.lr.ph.us:                                        ; preds = %._crit_edge.us, %.lr.ph37.split.us
  %indvars.iv = phi i64 [ %indvars.iv.next, %._crit_edge.us ], [ %35, %.lr.ph37.split.us ]
  %37 = mul nsw i64 %indvars.iv, %36
  %38 = getelementptr inbounds i8, ptr %19, i64 %37
  %39 = load i8, ptr %21, align 1, !tbaa !76
  %40 = zext i8 %39 to i64
  %41 = mul nuw nsw i64 %40, %20
  %42 = getelementptr inbounds nuw i16, ptr %38, i64 %41
  br label %43

43:                                               ; preds = %.lr.ph.us, %43
  %.03034.us = phi ptr [ %42, %.lr.ph.us ], [ %51, %43 ]
  %.03133.us = phi i32 [ 0, %.lr.ph.us ], [ %52, %43 ]
  %44 = load i16, ptr %.03034.us, align 2, !tbaa !89
  %45 = zext i16 %44 to i32
  %46 = sub i32 %45, %32
  %47 = mul i32 %46, %33
  %48 = add i32 %47, %34
  %49 = lshr i32 %48, 16
  %50 = trunc nuw i32 %49 to i16
  store i16 %50, ptr %.03034.us, align 2, !tbaa !89
  %51 = getelementptr inbounds nuw i16, ptr %.03034.us, i64 %25
  %52 = add nuw nsw i32 %.03133.us, 1
  %exitcond.not = icmp eq i32 %52, %23
  br i1 %exitcond.not, label %._crit_edge.us, label %43, !llvm.loop !102

._crit_edge.us:                                   ; preds = %43
  %indvars.iv.next = add nsw i64 %indvars.iv, 1
  %exitcond41.not = icmp eq i64 %indvars.iv.next, %wide.trip.count
  br i1 %exitcond41.not, label %._crit_edge38, label %.lr.ph.us, !llvm.loop !103

._crit_edge38:                                    ; preds = %._crit_edge.us, %.lr.ph37, %4
  ret i32 0
}